; Function Attrs: mustprogress uwtable
define void @_ZN3zmq20stream_engine_base_t11timer_eventEi(ptr noundef nonnull align 8 dereferenceable(1689) %this, i32 noundef %id_) unnamed_addr #0 align 2 {
entry:
  switch i32 %id_, label %if.end19 [
    i32 64, label %if.then
    i32 128, label %if.then3
    i32 130, label %if.then8
    i32 129, label %if.then13
  ]

if.then:                                          ; preds = %entry
  %_has_handshake_timer = getelementptr inbounds i8, ptr %this, i64 1536
  store i8 0, ptr %_has_handshake_timer, align 8
  %vtable = load ptr, ptr %this, align 8
  %vfn = getelementptr inbounds i8, ptr %vtable, i64 96
  %0 = load ptr, ptr %vfn, align 8
  tail call void %0(ptr noundef nonnull align 8 dereferenceable(1689) %this, i32 noundef 2)
  br label %if.end19

if.then3:                                         ; preds = %entry
  %_next_msg = getelementptr inbounds i8, ptr %this, i64 1416
  store i64 137, ptr %_next_msg, align 8
  %_next_msg.repack4 = getelementptr inbounds i8, ptr %this, i64 1424
  store i64 0, ptr %_next_msg.repack4, align 8
  %vtable4 = load ptr, ptr %this, align 8
  %vfn5 = getelementptr inbounds i8, ptr %vtable4, i64 24
  %1 = load ptr, ptr %vfn5, align 8
  tail call void %1(ptr noundef nonnull align 8 dereferenceable(1689) %this)
  %heartbeat_interval = getelementptr inbounds i8, ptr %this, i64 972
  %2 = load i32, ptr %heartbeat_interval, align 4
  tail call void @_ZN3zmq11io_object_t9add_timerEii(ptr noundef nonnull align 8 dereferenceable(16) %this, i32 noundef %2, i32 noundef 128)
  br label %if.end19

if.then8:                                         ; preds = %entry
  %_has_ttl_timer = getelementptr inbounds i8, ptr %this, i64 1537
  store i8 0, ptr %_has_ttl_timer, align 1
  %vtable9 = load ptr, ptr %this, align 8
  %vfn10 = getelementptr inbounds i8, ptr %vtable9, i64 96
  %3 = load ptr, ptr %vfn10, align 8
  tail call void %3(ptr noundef nonnull align 8 dereferenceable(1689) %this, i32 noundef 2)
  br label %if.end19

if.then13:                                        ; preds = %entry
  %_has_timeout_timer = getelementptr inbounds i8, ptr %this, i64 1538
  store i8 0, ptr %_has_timeout_timer, align 2
  %vtable14 = load ptr, ptr %this, align 8
  %vfn15 = getelementptr inbounds i8, ptr %vtable14, i64 96
  %4 = load ptr, ptr %vfn15, align 8
  tail call void %4(ptr noundef nonnull align 8 dereferenceable(1689) %this, i32 noundef 2)
  br label %if.end19

if.end19:                                         ; preds = %entry, %if.then3, %if.then13, %if.then8, %if.then
  ret void
}